target datalayout = "e-m:e-p270:32:32-p271:32:32-p272:64:64-i64:64-i128:128-f80:128-n8:16:32:64-S128"
target triple = "x86_64-pc-linux-gnu"

%"struct.std::array.6" = type { [8 x i32] }
%"class.std::shared_ptr" = type { %"class.std::__shared_ptr" }
%"class.std::__shared_ptr" = type { ptr, %"class.std::__shared_count" }
%"class.std::__shared_count" = type { ptr }
%"class.open_spiel::othello::OthelloState" = type { %"class.open_spiel::State.base", %"struct.std::array", i32, i32, [4 x i8] }
%"class.open_spiel::State.base" = type <{ ptr, %"class.std::shared_ptr", i32, i32, %"class.std::vector", i32 }>
%"class.std::vector" = type { %"struct.std::_Vector_base" }
%"struct.std::_Vector_base" = type { %"struct.std::_Vector_base<open_spiel::State::PlayerAction, std::allocator<open_spiel::State::PlayerAction>>::_Vector_impl" }
%"struct.std::_Vector_base<open_spiel::State::PlayerAction, std::allocator<open_spiel::State::PlayerAction>>::_Vector_impl" = type { %"struct.std::_Vector_base<open_spiel::State::PlayerAction, std::allocator<open_spiel::State::PlayerAction>>::_Vector_impl_data" }
%"struct.std::_Vector_base<open_spiel::State::PlayerAction, std::allocator<open_spiel::State::PlayerAction>>::_Vector_impl_data" = type { ptr, ptr, ptr }
%"struct.std::array" = type { [64 x i32] }

@_ZN10open_spiel7othello11kDirectionsE = linkonce_odr constant %"struct.std::array.6" { [8 x i32] [i32 0, i32 1, i32 2, i32 3, i32 4, i32 5, i32 6, i32 7] }, comdat, align 4

; Function Attrs: mustprogress nounwind uwtable
define linkonce_odr noundef ptr @_ZNSt14__array_traitsIN10open_spiel7othello9DirectionELm8EE6_S_ptrERA8_KS2_(ptr noundef nonnull align 4 dereferenceable(32) %0) #6 comdat align 2 {
  %2 = alloca ptr, align 8
  store ptr %0, ptr %2, align 8
  %3 = load ptr, ptr %2, align 8
  %4 = getelementptr inbounds [8 x i32], ptr %3, i64 0, i64 0
  ret ptr %4
}

; Function Attrs: mustprogress nounwind uwtable
define linkonce_odr noundef ptr @_ZNKSt5arrayIN10open_spiel7othello9DirectionELm8EE4dataEv(ptr noundef nonnull align 4 dereferenceable(32) %0) #6 comdat align 2 {
  %2 = alloca ptr, align 8
  store ptr %0, ptr %2, align 8
  %3 = load ptr, ptr %2, align 8
  %4 = getelementptr inbounds nuw %"struct.std::array.6", ptr %3, i32 0, i32 0
  %5 = call noundef ptr @_ZNSt14__array_traitsIN10open_spiel7othello9DirectionELm8EE6_S_ptrERA8_KS2_(ptr noundef nonnull align 4 dereferenceable(32) %4) #3
  ret ptr %5
}

; Function Attrs: mustprogress nounwind uwtable
define linkonce_odr noundef nonnull align 4 dereferenceable(4) ptr @_ZNSt14__array_traitsIN10open_spiel7othello9CellStateELm64EE6_S_refERA64_KS2_m(ptr noundef nonnull align 4 dereferenceable(256) %0, i64 noundef %1) #6 comdat align 2 {
  %3 = alloca ptr, align 8
  %4 = alloca i64, align 8
  store ptr %0, ptr %3, align 8
  store i64 %1, ptr %4, align 8
  %5 = load ptr, ptr %3, align 8
  %6 = load i64, ptr %4, align 8
  %7 = getelementptr inbounds [64 x i32], ptr %5, i64 0, i64 %6
  ret ptr %7
}

; Function Attrs: mustprogress nounwind uwtable
define linkonce_odr noundef ptr @_ZNKSt5arrayIN10open_spiel7othello9DirectionELm8EE3endEv(ptr noundef nonnull align 4 dereferenceable(32) %0) #6 comdat align 2 {
  %2 = alloca ptr, align 8
  store ptr %0, ptr %2, align 8
  %3 = load ptr, ptr %2, align 8
  %4 = call noundef ptr @_ZNKSt5arrayIN10open_spiel7othello9DirectionELm8EE4dataEv(ptr noundef nonnull align 4 dereferenceable(32) %3) #3
  %5 = getelementptr inbounds i32, ptr %4, i64 8
  ret ptr %5
}

; Function Attrs: mustprogress nounwind uwtable
define linkonce_odr noundef ptr @_ZNKSt5arrayIN10open_spiel7othello9DirectionELm8EE5beginEv(ptr noundef nonnull align 4 dereferenceable(32) %0) #6 comdat align 2 {
  %2 = alloca ptr, align 8
  store ptr %0, ptr %2, align 8
  %3 = load ptr, ptr %2, align 8
  %4 = call noundef ptr @_ZNKSt5arrayIN10open_spiel7othello9DirectionELm8EE4dataEv(ptr noundef nonnull align 4 dereferenceable(32) %3) #3
  ret ptr %4
}

; Function Attrs: mustprogress nounwind uwtable
define linkonce_odr noundef nonnull align 4 dereferenceable(4) ptr @_ZNKSt5arrayIN10open_spiel7othello9CellStateELm64EEixEm(ptr noundef nonnull align 4 dereferenceable(256) %0, i64 noundef %1) #6 comdat align 2 {
  %3 = alloca ptr, align 8
  %4 = alloca i64, align 8
  store ptr %0, ptr %3, align 8
  store i64 %1, ptr %4, align 8
  %5 = load ptr, ptr %3, align 8
  %6 = getelementptr inbounds nuw %"struct.std::array", ptr %5, i32 0, i32 0
  %7 = load i64, ptr %4, align 8
  %8 = call noundef nonnull align 4 dereferenceable(4) ptr @_ZNSt14__array_traitsIN10open_spiel7othello9CellStateELm64EE6_S_refERA64_KS2_m(ptr noundef nonnull align 4 dereferenceable(256) %6, i64 noundef %7) #3
  ret ptr %8
}

; Function Attrs: mustprogress uwtable
define noundef zeroext i1 @_ZNK10open_spiel7othello12OthelloState10CanCaptureEii(ptr noundef nonnull align 8 dereferenceable(324) %0, i32 noundef %1, i32 noundef %2) #4 align 2 {
  %4 = alloca i1, align 1
  %5 = alloca ptr, align 8
  %6 = alloca i32, align 4
  %7 = alloca i32, align 4
  %8 = alloca ptr, align 8
  %9 = alloca ptr, align 8
  %10 = alloca ptr, align 8
  %11 = alloca i32, align 4
  store ptr %0, ptr %5, align 8
  store i32 %1, ptr %6, align 4
  store i32 %2, ptr %7, align 4
  %12 = load ptr, ptr %5, align 8
  %13 = getelementptr inbounds nuw %"class.open_spiel::othello::OthelloState", ptr %12, i32 0, i32 1
  %14 = load i32, ptr %7, align 4
  %15 = sext i32 %14 to i64
  %16 = call noundef nonnull align 4 dereferenceable(4) ptr @_ZNKSt5arrayIN10open_spiel7othello9CellStateELm64EEixEm(ptr noundef nonnull align 4 dereferenceable(256) %13, i64 noundef %15) #3
  %17 = load i32, ptr %16, align 4
  %18 = icmp ne i32 %17, 0
  br i1 %18, label %19, label %20

19:                                               ; preds = %3
  store i1 false, ptr %4, align 1
  br label %41

20:                                               ; preds = %3
  store ptr @_ZN10open_spiel7othello11kDirectionsE, ptr %8, align 8
  %21 = call noundef ptr @_ZNKSt5arrayIN10open_spiel7othello9DirectionELm8EE5beginEv(ptr noundef nonnull align 4 dereferenceable(32) @_ZN10open_spiel7othello11kDirectionsE) #3
  store ptr %21, ptr %9, align 8
  %22 = call noundef ptr @_ZNKSt5arrayIN10open_spiel7othello9DirectionELm8EE3endEv(ptr noundef nonnull align 4 dereferenceable(32) @_ZN10open_spiel7othello11kDirectionsE) #3
  store ptr %22, ptr %10, align 8
  br label %23

23:                                               ; preds = %37, %20
  %24 = load ptr, ptr %9, align 8
  %25 = load ptr, ptr %10, align 8
  %26 = icmp ne ptr %24, %25
  br i1 %26, label %27, label %40

27:                                               ; preds = %23
  %28 = load ptr, ptr %9, align 8
  %29 = load i32, ptr %28, align 4
  store i32 %29, ptr %11, align 4
  %30 = load i32, ptr %6, align 4
  %31 = load i32, ptr %7, align 4
  %32 = load i32, ptr %11, align 4
  %33 = call noundef i32 @_ZNK10open_spiel7othello12OthelloState10CountStepsEiiNS0_9DirectionE(ptr noundef nonnull align 8 dereferenceable(324) %12, i32 noundef %30, i32 noundef %31, i32 noundef %32)
  %34 = icmp ne i32 %33, 0
  br i1 %34, label %35, label %36

35:                                               ; preds = %27
  store i1 true, ptr %4, align 1
  br label %41

36:                                               ; preds = %27
  br label %37

37:                                               ; preds = %36
  %38 = load ptr, ptr %9, align 8
  %39 = getelementptr inbounds i32, ptr %38, i32 1
  store ptr %39, ptr %9, align 8
  br label %23

40:                                               ; preds = %23
  store i1 false, ptr %4, align 1
  br label %41

41:                                               ; preds = %40, %35, %19
  %42 = load i1, ptr %4, align 1
  ret i1 %42
}