; Function Attrs: mustprogress uwtable
define noundef zeroext i1 @_ZNK10open_spiel7othello12OthelloState10CanCaptureEii(ptr noundef nonnull readonly align 8 captures(none) dereferenceable(324) %0, i32 noundef %1, i32 noundef %2) local_unnamed_addr #3 align 2 {
  %4 = getelementptr inbounds nuw i8, ptr %0, i64 60
  %5 = sext i32 %2 to i64
  %6 = getelementptr inbounds [64 x i32], ptr %4, i64 0, i64 %5
  %7 = load i32, ptr %6, align 4
  %.not = icmp eq i32 %7, 0
  br i1 %.not, label %.preheader, label %.loopexit

.preheader:                                       ; preds = %3, %.preheader
  %.09.idx12 = phi i64 [ %.09.add, %.preheader ], [ 0, %3 ]
  %.09.ptr = getelementptr inbounds nuw i8, ptr @_ZN10open_spiel7othello11kDirectionsE, i64 %.09.idx12
  %8 = load i32, ptr %.09.ptr, align 4
  %9 = tail call noundef i32 @_ZNK10open_spiel7othello12OthelloState10CountStepsEiiNS0_9DirectionE(ptr noundef nonnull align 8 dereferenceable(324) %0, i32 noundef %1, i32 noundef %2, i32 noundef %8)
  %.not11.not = icmp ne i32 %9, 0
  %.09.add = add nuw nsw i64 %.09.idx12, 4
  %.not10 = icmp eq i64 %.09.add, 32
  %or.cond = select i1 %.not11.not, i1 true, i1 %.not10
  br i1 %or.cond, label %.loopexit, label %.preheader

.loopexit:                                        ; preds = %.preheader, %3
  %.0 = phi i1 [ false, %3 ], [ %.not11.not, %.preheader ]
  ret i1 %.0
}